target datalayout = "e-m:e-p270:32:32-p271:32:32-p272:64:64-i64:64-i128:128-f80:128-n8:16:32:64-S128"
target triple = "x86_64-pc-linux-gnu"

@hf_control_cs_req_config_id = internal global i32 0, align 4
@hf_control_cs_req_rfu = internal global i32 0, align 4
@hf_control_cs_req_conn_event_count = internal global i32 0, align 4
@hf_control_cs_req_offset_min = internal global i32 0, align 4
@hf_control_cs_req_offset_max = internal global i32 0, align 4
@hf_control_cs_req_max_procedure_len = internal global i32 0, align 4
@hf_control_cs_req_event_interval = internal global i32 0, align 4
@hf_control_cs_req_subevents_per_event = internal global i32 0, align 4
@hf_control_cs_req_subevent_interval = internal global i32 0, align 4
@hf_control_cs_req_subevent_len = internal global i32 0, align 4
@hf_control_cs_req_procedure_interval = internal global i32 0, align 4
@hf_control_cs_req_procedure_count = internal global i32 0, align 4
@hf_control_cs_req_aci = internal global i32 0, align 4
@hf_control_cs_req_preferred_peer_ant = internal global i32 0, align 4
@hf_control_cs_req_phy = internal global i32 0, align 4
@hf_control_cs_req_pwr_delta = internal global i32 0, align 4
@hf_control_cs_req_tx_snr_i = internal global i32 0, align 4
@hf_control_cs_req_tx_snr_r = internal global i32 0, align 4
@.str.974 = private unnamed_addr constant [11 x i8] c" (%g msec)\00", align 1

; Function Attrs: null_pointer_is_valid sspstrong uwtable
define internal i32 @dissect_cs_req(ptr noundef %0, ptr noundef %1, i32 noundef %2) #0 {
  %4 = alloca ptr, align 8
  %5 = alloca ptr, align 8
  %6 = alloca i32, align 4
  %7 = alloca i32, align 4
  %8 = alloca ptr, align 8
  store ptr %0, ptr %4, align 8
  store ptr %1, ptr %5, align 8
  store i32 %2, ptr %6, align 4
  %9 = load ptr, ptr %5, align 8
  %10 = load i32, ptr @hf_control_cs_req_config_id, align 4
  %11 = load ptr, ptr %4, align 8
  %12 = load i32, ptr %6, align 4
  %13 = call ptr @proto_tree_add_item(ptr noundef %9, i32 noundef %10, ptr noundef %11, i32 noundef %12, i32 noundef 1, i32 noundef -2147483648)
  %14 = load ptr, ptr %5, align 8
  %15 = load i32, ptr @hf_control_cs_req_rfu, align 4
  %16 = load ptr, ptr %4, align 8
  %17 = load i32, ptr %6, align 4
  %18 = call ptr @proto_tree_add_item(ptr noundef %14, i32 noundef %15, ptr noundef %16, i32 noundef %17, i32 noundef 1, i32 noundef -2147483648)
  %19 = load i32, ptr %6, align 4
  %20 = add i32 %19, 1
  store i32 %20, ptr %6, align 4
  %21 = load ptr, ptr %5, align 8
  %22 = load i32, ptr @hf_control_cs_req_conn_event_count, align 4
  %23 = load ptr, ptr %4, align 8
  %24 = load i32, ptr %6, align 4
  %25 = call ptr @proto_tree_add_item(ptr noundef %21, i32 noundef %22, ptr noundef %23, i32 noundef %24, i32 noundef 2, i32 noundef -2147483648)
  %26 = load i32, ptr %6, align 4
  %27 = add i32 %26, 2
  store i32 %27, ptr %6, align 4
  %28 = load ptr, ptr %5, align 8
  %29 = load i32, ptr @hf_control_cs_req_offset_min, align 4
  %30 = load ptr, ptr %4, align 8
  %31 = load i32, ptr %6, align 4
  %32 = call ptr @proto_tree_add_item(ptr noundef %28, i32 noundef %29, ptr noundef %30, i32 noundef %31, i32 noundef 3, i32 noundef -2147483648)
  %33 = load i32, ptr %6, align 4
  %34 = add i32 %33, 3
  store i32 %34, ptr %6, align 4
  %35 = load ptr, ptr %5, align 8
  %36 = load i32, ptr @hf_control_cs_req_offset_max, align 4
  %37 = load ptr, ptr %4, align 8
  %38 = load i32, ptr %6, align 4
  %39 = call ptr @proto_tree_add_item(ptr noundef %35, i32 noundef %36, ptr noundef %37, i32 noundef %38, i32 noundef 3, i32 noundef -2147483648)
  %40 = load i32, ptr %6, align 4
  %41 = add i32 %40, 3
  store i32 %41, ptr %6, align 4
  call void @llvm.lifetime.start.p0(i64 4, ptr %7) #13
  store i32 0, ptr %7, align 4
  call void @llvm.lifetime.start.p0(i64 8, ptr %8) #13
  store ptr null, ptr %8, align 8
  %42 = load ptr, ptr %5, align 8
  %43 = load i32, ptr @hf_control_cs_req_max_procedure_len, align 4
  %44 = load ptr, ptr %4, align 8
  %45 = load i32, ptr %6, align 4
  %46 = call ptr @proto_tree_add_item_ret_uint(ptr noundef %42, i32 noundef %43, ptr noundef %44, i32 noundef %45, i32 noundef 2, i32 noundef -2147483648, ptr noundef %7)
  store ptr %46, ptr %8, align 8
  %47 = load ptr, ptr %8, align 8
  %48 = load i32, ptr %7, align 4
  %49 = uitofp i32 %48 to double
  %50 = fmul double %49, 6.250000e-01
  call void (ptr, ptr, ...) @proto_item_append_text(ptr noundef %47, ptr noundef @.str.974, double noundef %50)
  %51 = load i32, ptr %6, align 4
  %52 = add i32 %51, 2
  store i32 %52, ptr %6, align 4
  %53 = load ptr, ptr %5, align 8
  %54 = load i32, ptr @hf_control_cs_req_event_interval, align 4
  %55 = load ptr, ptr %4, align 8
  %56 = load i32, ptr %6, align 4
  %57 = call ptr @proto_tree_add_item(ptr noundef %53, i32 noundef %54, ptr noundef %55, i32 noundef %56, i32 noundef 2, i32 noundef -2147483648)
  %58 = load i32, ptr %6, align 4
  %59 = add i32 %58, 2
  store i32 %59, ptr %6, align 4
  %60 = load ptr, ptr %5, align 8
  %61 = load i32, ptr @hf_control_cs_req_subevents_per_event, align 4
  %62 = load ptr, ptr %4, align 8
  %63 = load i32, ptr %6, align 4
  %64 = call ptr @proto_tree_add_item(ptr noundef %60, i32 noundef %61, ptr noundef %62, i32 noundef %63, i32 noundef 1, i32 noundef -2147483648)
  %65 = load i32, ptr %6, align 4
  %66 = add i32 %65, 1
  store i32 %66, ptr %6, align 4
  %67 = load ptr, ptr %5, align 8
  %68 = load i32, ptr @hf_control_cs_req_subevent_interval, align 4
  %69 = load ptr, ptr %4, align 8
  %70 = load i32, ptr %6, align 4
  %71 = call ptr @proto_tree_add_item(ptr noundef %67, i32 noundef %68, ptr noundef %69, i32 noundef %70, i32 noundef 2, i32 noundef -2147483648)
  %72 = load i32, ptr %6, align 4
  %73 = add i32 %72, 2
  store i32 %73, ptr %6, align 4
  %74 = load ptr, ptr %5, align 8
  %75 = load i32, ptr @hf_control_cs_req_subevent_len, align 4
  %76 = load ptr, ptr %4, align 8
  %77 = load i32, ptr %6, align 4
  %78 = call ptr @proto_tree_add_item(ptr noundef %74, i32 noundef %75, ptr noundef %76, i32 noundef %77, i32 noundef 3, i32 noundef -2147483648)
  %79 = load i32, ptr %6, align 4
  %80 = add i32 %79, 3
  store i32 %80, ptr %6, align 4
  %81 = load ptr, ptr %5, align 8
  %82 = load i32, ptr @hf_control_cs_req_procedure_interval, align 4
  %83 = load ptr, ptr %4, align 8
  %84 = load i32, ptr %6, align 4
  %85 = call ptr @proto_tree_add_item(ptr noundef %81, i32 noundef %82, ptr noundef %83, i32 noundef %84, i32 noundef 2, i32 noundef -2147483648)
  %86 = load i32, ptr %6, align 4
  %87 = add i32 %86, 2
  store i32 %87, ptr %6, align 4
  %88 = load ptr, ptr %5, align 8
  %89 = load i32, ptr @hf_control_cs_req_procedure_count, align 4
  %90 = load ptr, ptr %4, align 8
  %91 = load i32, ptr %6, align 4
  %92 = call ptr @proto_tree_add_item(ptr noundef %88, i32 noundef %89, ptr noundef %90, i32 noundef %91, i32 noundef 2, i32 noundef -2147483648)
  %93 = load i32, ptr %6, align 4
  %94 = add i32 %93, 2
  store i32 %94, ptr %6, align 4
  %95 = load ptr, ptr %5, align 8
  %96 = load i32, ptr @hf_control_cs_req_aci, align 4
  %97 = load ptr, ptr %4, align 8
  %98 = load i32, ptr %6, align 4
  %99 = call ptr @proto_tree_add_item(ptr noundef %95, i32 noundef %96, ptr noundef %97, i32 noundef %98, i32 noundef 1, i32 noundef -2147483648)
  %100 = load i32, ptr %6, align 4
  %101 = add i32 %100, 1
  store i32 %101, ptr %6, align 4
  %102 = load ptr, ptr %5, align 8
  %103 = load i32, ptr @hf_control_cs_req_preferred_peer_ant, align 4
  %104 = load ptr, ptr %4, align 8
  %105 = load i32, ptr %6, align 4
  %106 = call ptr @proto_tree_add_item(ptr noundef %102, i32 noundef %103, ptr noundef %104, i32 noundef %105, i32 noundef 1, i32 noundef -2147483648)
  %107 = load i32, ptr %6, align 4
  %108 = add i32 %107, 1
  store i32 %108, ptr %6, align 4
  %109 = load ptr, ptr %5, align 8
  %110 = load i32, ptr @hf_control_cs_req_phy, align 4
  %111 = load ptr, ptr %4, align 8
  %112 = load i32, ptr %6, align 4
  %113 = call ptr @proto_tree_add_item(ptr noundef %109, i32 noundef %110, ptr noundef %111, i32 noundef %112, i32 noundef 1, i32 noundef -2147483648)
  %114 = load i32, ptr %6, align 4
  %115 = add i32 %114, 1
  store i32 %115, ptr %6, align 4
  %116 = load ptr, ptr %5, align 8
  %117 = load i32, ptr @hf_control_cs_req_pwr_delta, align 4
  %118 = load ptr, ptr %4, align 8
  %119 = load i32, ptr %6, align 4
  %120 = call ptr @proto_tree_add_item(ptr noundef %116, i32 noundef %117, ptr noundef %118, i32 noundef %119, i32 noundef 1, i32 noundef -2147483648)
  %121 = load i32, ptr %6, align 4
  %122 = add i32 %121, 1
  store i32 %122, ptr %6, align 4
  %123 = load ptr, ptr %5, align 8
  %124 = load i32, ptr @hf_control_cs_req_tx_snr_i, align 4
  %125 = load ptr, ptr %4, align 8
  %126 = load i32, ptr %6, align 4
  %127 = call ptr @proto_tree_add_item(ptr noundef %123, i32 noundef %124, ptr noundef %125, i32 noundef %126, i32 noundef 1, i32 noundef -2147483648)
  %128 = load ptr, ptr %5, align 8
  %129 = load i32, ptr @hf_control_cs_req_tx_snr_r, align 4
  %130 = load ptr, ptr %4, align 8
  %131 = load i32, ptr %6, align 4
  %132 = call ptr @proto_tree_add_item(ptr noundef %128, i32 noundef %129, ptr noundef %130, i32 noundef %131, i32 noundef 1, i32 noundef -2147483648)
  %133 = load i32, ptr %6, align 4
  %134 = add i32 %133, 1
  store i32 %134, ptr %6, align 4
  %135 = load i32, ptr %6, align 4
  call void @llvm.lifetime.end.p0(i64 8, ptr %8) #13
  call void @llvm.lifetime.end.p0(i64 4, ptr %7) #13
  ret i32 %135
}