; Function Attrs: null_pointer_is_valid sspstrong uwtable
define internal fastcc range(i32 31, 33) i32 @dissect_cs_req(ptr noundef %0, ptr noundef %1, i32 noundef range(i32 3, 5) %2) unnamed_addr #0 {
  %4 = alloca i32, align 4
  %5 = load i32, ptr @hf_control_cs_req_config_id, align 4
  %6 = tail call ptr @proto_tree_add_item(ptr noundef %1, i32 noundef %5, ptr noundef %0, i32 noundef %2, i32 noundef 1, i32 noundef -2147483648)
  %7 = load i32, ptr @hf_control_cs_req_rfu, align 4
  %8 = tail call ptr @proto_tree_add_item(ptr noundef %1, i32 noundef %7, ptr noundef %0, i32 noundef %2, i32 noundef 1, i32 noundef -2147483648)
  %9 = add nuw nsw i32 %2, 1
  %10 = load i32, ptr @hf_control_cs_req_conn_event_count, align 4
  %11 = tail call ptr @proto_tree_add_item(ptr noundef %1, i32 noundef %10, ptr noundef %0, i32 noundef %9, i32 noundef 2, i32 noundef -2147483648)
  %12 = add nuw nsw i32 %2, 3
  %13 = load i32, ptr @hf_control_cs_req_offset_min, align 4
  %14 = tail call ptr @proto_tree_add_item(ptr noundef %1, i32 noundef %13, ptr noundef %0, i32 noundef %12, i32 noundef 3, i32 noundef -2147483648)
  %15 = add nuw nsw i32 %2, 6
  %16 = load i32, ptr @hf_control_cs_req_offset_max, align 4
  %17 = tail call ptr @proto_tree_add_item(ptr noundef %1, i32 noundef %16, ptr noundef %0, i32 noundef %15, i32 noundef 3, i32 noundef -2147483648)
  %18 = add nuw nsw i32 %2, 9
  call void @llvm.lifetime.start.p0(i64 4, ptr nonnull %4) #12
  store i32 0, ptr %4, align 4
  %19 = load i32, ptr @hf_control_cs_req_max_procedure_len, align 4
  %20 = call ptr @proto_tree_add_item_ret_uint(ptr noundef %1, i32 noundef %19, ptr noundef %0, i32 noundef %18, i32 noundef 2, i32 noundef -2147483648, ptr noundef nonnull %4)
  %21 = load i32, ptr %4, align 4
  %22 = uitofp i32 %21 to double
  %23 = fmul double %22, 6.250000e-01
  call void (ptr, ptr, ...) @proto_item_append_text(ptr noundef %20, ptr noundef nonnull @.str.974, double noundef %23)
  %24 = add nuw nsw i32 %2, 11
  %25 = load i32, ptr @hf_control_cs_req_event_interval, align 4
  %26 = call ptr @proto_tree_add_item(ptr noundef %1, i32 noundef %25, ptr noundef %0, i32 noundef %24, i32 noundef 2, i32 noundef -2147483648)
  %27 = add nuw nsw i32 %2, 13
  %28 = load i32, ptr @hf_control_cs_req_subevents_per_event, align 4
  %29 = call ptr @proto_tree_add_item(ptr noundef %1, i32 noundef %28, ptr noundef %0, i32 noundef %27, i32 noundef 1, i32 noundef -2147483648)
  %30 = add nuw nsw i32 %2, 14
  %31 = load i32, ptr @hf_control_cs_req_subevent_interval, align 4
  %32 = call ptr @proto_tree_add_item(ptr noundef %1, i32 noundef %31, ptr noundef %0, i32 noundef %30, i32 noundef 2, i32 noundef -2147483648)
  %33 = or disjoint i32 %2, 16
  %34 = load i32, ptr @hf_control_cs_req_subevent_len, align 4
  %35 = call ptr @proto_tree_add_item(ptr noundef %1, i32 noundef %34, ptr noundef %0, i32 noundef %33, i32 noundef 3, i32 noundef -2147483648)
  %36 = add nuw nsw i32 %2, 19
  %37 = load i32, ptr @hf_control_cs_req_procedure_interval, align 4
  %38 = call ptr @proto_tree_add_item(ptr noundef %1, i32 noundef %37, ptr noundef %0, i32 noundef %36, i32 noundef 2, i32 noundef -2147483648)
  %39 = add nuw nsw i32 %2, 21
  %40 = load i32, ptr @hf_control_cs_req_procedure_count, align 4
  %41 = call ptr @proto_tree_add_item(ptr noundef %1, i32 noundef %40, ptr noundef %0, i32 noundef %39, i32 noundef 2, i32 noundef -2147483648)
  %42 = add nuw nsw i32 %2, 23
  %43 = load i32, ptr @hf_control_cs_req_aci, align 4
  %44 = call ptr @proto_tree_add_item(ptr noundef %1, i32 noundef %43, ptr noundef %0, i32 noundef %42, i32 noundef 1, i32 noundef -2147483648)
  %45 = or disjoint i32 %2, 24
  %46 = load i32, ptr @hf_control_cs_req_preferred_peer_ant, align 4
  %47 = call ptr @proto_tree_add_item(ptr noundef %1, i32 noundef %46, ptr noundef %0, i32 noundef %45, i32 noundef 1, i32 noundef -2147483648)
  %48 = add nuw nsw i32 %2, 25
  %49 = load i32, ptr @hf_control_cs_req_phy, align 4
  %50 = call ptr @proto_tree_add_item(ptr noundef %1, i32 noundef %49, ptr noundef %0, i32 noundef %48, i32 noundef 1, i32 noundef -2147483648)
  %51 = add nuw nsw i32 %2, 26
  %52 = load i32, ptr @hf_control_cs_req_pwr_delta, align 4
  %53 = call ptr @proto_tree_add_item(ptr noundef %1, i32 noundef %52, ptr noundef %0, i32 noundef %51, i32 noundef 1, i32 noundef -2147483648)
  %54 = add nuw nsw i32 %2, 27
  %55 = load i32, ptr @hf_control_cs_req_tx_snr_i, align 4
  %56 = call ptr @proto_tree_add_item(ptr noundef %1, i32 noundef %55, ptr noundef %0, i32 noundef %54, i32 noundef 1, i32 noundef -2147483648)
  %57 = load i32, ptr @hf_control_cs_req_tx_snr_r, align 4
  %58 = call ptr @proto_tree_add_item(ptr noundef %1, i32 noundef %57, ptr noundef %0, i32 noundef %54, i32 noundef 1, i32 noundef -2147483648)
  %59 = add nuw nsw i32 %2, 28
  call void @llvm.lifetime.end.p0(i64 4, ptr nonnull %4) #12
  ret i32 %59
}